target datalayout = "e-m:e-p270:32:32-p271:32:32-p272:64:64-i64:64-i128:128-f80:128-n8:16:32:64-S128"
target triple = "x86_64-pc-linux-gnu"

%struct.slurm_step_id_msg = type { i64, i32, i32, i32 }
%struct.slurm_msg = type { %struct.sockaddr_storage, ptr, i32, i32, i32, i8, i32, i8, i32, ptr, ptr, i32, ptr, ptr, i16, i8, i16, i16, %struct.forward, ptr, %struct.sockaddr_storage, ptr }
%struct.forward = type { %struct.slurm_node_alias_addrs_t, i16, i16, ptr, i32, i16, i16 }
%struct.slurm_node_alias_addrs_t = type { i64, ptr, ptr, i32, ptr }
%struct.sockaddr_storage = type { i16, [118 x i8], i64 }
%struct.slurm_step_layout = type { ptr, i32, ptr, ptr, ptr, i32, ptr, i16, i16, ptr, i32, i32, ptr }
%struct.ret_data_info = type { i16, i32, ptr, ptr }
%struct.job_step_pids_response_msg_t = type { ptr, %struct.slurm_step_id_msg }

@.str.27 = private unnamed_addr constant [16 x i8] c"job_step_info.c\00", align 1
@.str.28 = private unnamed_addr constant [51 x i8] c"%s: getting pid information of job %ps on nodes %s\00", align 1
@.str.29 = private unnamed_addr constant [34 x i8] c"%s: got an error no list returned\00", align 1
@.str.33 = private unnamed_addr constant [65 x i8] c"slurm_job_step_get_pids: problem getting step_layout for %ps: %s\00", align 1
@__func__.slurm_job_step_get_pids = private unnamed_addr constant [24 x i8] c"slurm_job_step_get_pids\00", align 1
@.str.34 = private unnamed_addr constant [57 x i8] c"%s: there was an error with the list pid request rc = %s\00", align 1
@.str.35 = private unnamed_addr constant [36 x i8] c"%s: unknown return given %d rc = %s\00", align 1

; Function Attrs: nounwind uwtable
define dso_local void @slurm_job_step_pids_response_msg_free(ptr noundef %0) #0 {
  %2 = alloca ptr, align 8
  %3 = alloca ptr, align 8
  store ptr %0, ptr %2, align 8
  call void @llvm.lifetime.start.p0(i64 8, ptr %3) #8
  %4 = load ptr, ptr %2, align 8
  store ptr %4, ptr %3, align 8
  %5 = load ptr, ptr %3, align 8
  %6 = icmp ne ptr %5, null
  br i1 %6, label %7, label %22

7:                                                ; preds = %1
  br label %8

8:                                                ; preds = %7
  %9 = load ptr, ptr %3, align 8
  %10 = getelementptr inbounds nuw %struct.job_step_pids_response_msg_t, ptr %9, i32 0, i32 0
  %11 = load ptr, ptr %10, align 8
  %12 = icmp ne ptr %11, null
  br i1 %12, label %13, label %17

13:                                               ; preds = %8
  %14 = load ptr, ptr %3, align 8
  %15 = getelementptr inbounds nuw %struct.job_step_pids_response_msg_t, ptr %14, i32 0, i32 0
  %16 = load ptr, ptr %15, align 8
  call void @list_destroy(ptr noundef %16)
  br label %17

17:                                               ; preds = %13, %8
  %18 = load ptr, ptr %3, align 8
  %19 = getelementptr inbounds nuw %struct.job_step_pids_response_msg_t, ptr %18, i32 0, i32 0
  store ptr null, ptr %19, align 8
  br label %20

20:                                               ; preds = %17
  br label %21

21:                                               ; preds = %20
  call void @slurm_xfree(ptr noundef %3)
  br label %22

22:                                               ; preds = %21, %1
  call void @llvm.lifetime.end.p0(i64 8, ptr %3) #8
  ret void
}

; Function Attrs: nounwind uwtable
define dso_local i32 @slurm_job_step_get_pids(ptr noundef %0, ptr noundef %1, ptr noundef %2) #0 {
  %4 = alloca i32, align 4
  %5 = alloca ptr, align 8
  %6 = alloca ptr, align 8
  %7 = alloca ptr, align 8
  %8 = alloca i32, align 4
  %9 = alloca %struct.slurm_msg, align 8
  %10 = alloca %struct.slurm_step_id_msg, align 8
  %11 = alloca ptr, align 8
  %12 = alloca ptr, align 8
  %13 = alloca ptr, align 8
  %14 = alloca ptr, align 8
  %15 = alloca ptr, align 8
  %16 = alloca i8, align 1
  %17 = alloca i32, align 4
  store ptr %0, ptr %5, align 8
  store ptr %1, ptr %6, align 8
  store ptr %2, ptr %7, align 8
  call void @llvm.lifetime.start.p0(i64 4, ptr %8) #8
  store i32 0, ptr %8, align 4
  call void @llvm.lifetime.start.p0(i64 424, ptr %9) #8
  call void @llvm.lifetime.start.p0(i64 24, ptr %10) #8
  call void @llvm.lifetime.start.p0(i64 8, ptr %11) #8
  call void @llvm.lifetime.start.p0(i64 8, ptr %12) #8
  store ptr null, ptr %12, align 8
  call void @llvm.lifetime.start.p0(i64 8, ptr %13) #8
  store ptr null, ptr %13, align 8
  call void @llvm.lifetime.start.p0(i64 8, ptr %14) #8
  store ptr null, ptr %14, align 8
  call void @llvm.lifetime.start.p0(i64 8, ptr %15) #8
  call void @llvm.lifetime.start.p0(i64 1, ptr %16) #8
  store i8 0, ptr %16, align 1
  %18 = load ptr, ptr %6, align 8
  %19 = icmp ne ptr %18, null
  br i1 %19, label %39, label %20

20:                                               ; preds = %3
  %21 = load ptr, ptr %5, align 8
  %22 = call ptr @slurm_job_step_layout_get(ptr noundef %21)
  store ptr %22, ptr %14, align 8
  %23 = icmp ne ptr %22, null
  br i1 %23, label %32, label %24

24:                                               ; preds = %20
  %25 = call ptr @__errno_location() #9
  %26 = load i32, ptr %25, align 4
  store i32 %26, ptr %8, align 4
  %27 = load ptr, ptr %5, align 8
  %28 = load i32, ptr %8, align 4
  %29 = call ptr @slurm_strerror(i32 noundef %28)
  %30 = call i32 (ptr, ...) @error(ptr noundef @.str.33, ptr noundef %27, ptr noundef %29)
  %31 = load i32, ptr %8, align 4
  store i32 %31, ptr %4, align 4
  store i32 1, ptr %17, align 4
  br label %162

32:                                               ; preds = %20
  %33 = load ptr, ptr %14, align 8
  %34 = getelementptr inbounds nuw %struct.slurm_step_layout, ptr %33, i32 0, i32 6
  %35 = load ptr, ptr %34, align 8
  store ptr %35, ptr %6, align 8
  %36 = load ptr, ptr %14, align 8
  %37 = getelementptr inbounds nuw %struct.slurm_step_layout, ptr %36, i32 0, i32 4
  %38 = load ptr, ptr %37, align 8
  call void @fwd_set_alias_addrs(ptr noundef %38)
  br label %39

39:                                               ; preds = %32, %3
  %40 = load ptr, ptr %7, align 8
  %41 = load ptr, ptr %40, align 8
  %42 = icmp ne ptr %41, null
  br i1 %42, label %47, label %43

43:                                               ; preds = %39
  %44 = call ptr @slurm_xcalloc(i64 noundef 1, i64 noundef 32, i1 noundef zeroext true, i1 noundef zeroext false, ptr noundef @.str.27, i32 noundef 851, ptr noundef @__func__.slurm_job_step_get_pids)
  store ptr %44, ptr %15, align 8
  %45 = load ptr, ptr %15, align 8
  %46 = load ptr, ptr %7, align 8
  store ptr %45, ptr %46, align 8
  store i8 1, ptr %16, align 1
  br label %50

47:                                               ; preds = %39
  %48 = load ptr, ptr %7, align 8
  %49 = load ptr, ptr %48, align 8
  store ptr %49, ptr %15, align 8
  br label %50

50:                                               ; preds = %47, %43
  br label %51

51:                                               ; preds = %50
  br label %52

52:                                               ; preds = %51
  %53 = call i32 @get_log_level()
  %54 = icmp sge i32 %53, 5
  br i1 %54, label %55, label %58

55:                                               ; preds = %52
  %56 = load ptr, ptr %5, align 8
  %57 = load ptr, ptr %6, align 8
  call void (i32, ptr, ...) @log_var(i32 noundef 5, ptr noundef @.str.28, ptr noundef @__func__.slurm_job_step_get_pids, ptr noundef %56, ptr noundef %57)
  br label %58

58:                                               ; preds = %55, %52
  br label %59

59:                                               ; preds = %58
  br label %60

60:                                               ; preds = %59
  br label %61

61:                                               ; preds = %60
  br label %62

62:                                               ; preds = %61
  call void @slurm_msg_t_init(ptr noundef %9)
  call void @slurm_msg_set_r_uid(ptr noundef %9, i32 noundef -1)
  %63 = load ptr, ptr %5, align 8
  call void @llvm.memcpy.p0.p0.i64(ptr align 8 %10, ptr align 8 %63, i64 24, i1 false)
  %64 = load ptr, ptr %15, align 8
  %65 = getelementptr inbounds nuw %struct.job_step_pids_response_msg_t, ptr %64, i32 0, i32 1
  %66 = load ptr, ptr %5, align 8
  call void @llvm.memcpy.p0.p0.i64(ptr align 8 %65, ptr align 8 %66, i64 24, i1 false)
  %67 = getelementptr inbounds nuw %struct.slurm_msg, ptr %9, i32 0, i32 16
  store i16 5027, ptr %67, align 4
  %68 = getelementptr inbounds nuw %struct.slurm_msg, ptr %9, i32 0, i32 13
  store ptr %10, ptr %68, align 8
  %69 = load ptr, ptr %6, align 8
  %70 = call ptr @slurm_send_recv_msgs(ptr noundef %69, ptr noundef %9, i32 noundef 0)
  store ptr %70, ptr %12, align 8
  %71 = icmp ne ptr %70, null
  br i1 %71, label %80, label %72

72:                                               ; preds = %62
  %73 = call i32 (ptr, ...) @error(ptr noundef @.str.29, ptr noundef @__func__.slurm_job_step_get_pids)
  store i32 -1, ptr %8, align 4
  %74 = load i8, ptr %16, align 1, !range !12, !noundef !13
  %75 = trunc i8 %74 to i1
  br i1 %75, label %76, label %79

76:                                               ; preds = %72
  %77 = load ptr, ptr %15, align 8
  call void @slurm_job_step_pids_response_msg_free(ptr noundef %77)
  %78 = load ptr, ptr %7, align 8
  store ptr null, ptr %78, align 8
  br label %79

79:                                               ; preds = %76, %72
  br label %158

80:                                               ; preds = %62
  %81 = load ptr, ptr %12, align 8
  %82 = call ptr @list_iterator_create(ptr noundef %81)
  store ptr %82, ptr %11, align 8
  br label %83

83:                                               ; preds = %138, %80
  %84 = load ptr, ptr %11, align 8
  %85 = call ptr @list_next(ptr noundef %84)
  store ptr %85, ptr %13, align 8
  %86 = icmp ne ptr %85, null
  br i1 %86, label %87, label %139

87:                                               ; preds = %83
  %88 = load ptr, ptr %13, align 8
  %89 = getelementptr inbounds nuw %struct.ret_data_info, ptr %88, i32 0, i32 0
  %90 = load i16, ptr %89, align 8
  %91 = zext i16 %90 to i32
  switch i32 %91, label %122 [
    i32 5028, label %92
    i32 8001, label %110
  ]

92:                                               ; preds = %87
  %93 = load ptr, ptr %15, align 8
  %94 = getelementptr inbounds nuw %struct.job_step_pids_response_msg_t, ptr %93, i32 0, i32 0
  %95 = load ptr, ptr %94, align 8
  %96 = icmp ne ptr %95, null
  br i1 %96, label %101, label %97

97:                                               ; preds = %92
  %98 = call ptr @list_create(ptr noundef @slurm_free_job_step_pids)
  %99 = load ptr, ptr %15, align 8
  %100 = getelementptr inbounds nuw %struct.job_step_pids_response_msg_t, ptr %99, i32 0, i32 0
  store ptr %98, ptr %100, align 8
  br label %101

101:                                              ; preds = %97, %92
  %102 = load ptr, ptr %15, align 8
  %103 = getelementptr inbounds nuw %struct.job_step_pids_response_msg_t, ptr %102, i32 0, i32 0
  %104 = load ptr, ptr %103, align 8
  %105 = load ptr, ptr %13, align 8
  %106 = getelementptr inbounds nuw %struct.ret_data_info, ptr %105, i32 0, i32 3
  %107 = load ptr, ptr %106, align 8
  call void @list_push(ptr noundef %104, ptr noundef %107)
  %108 = load ptr, ptr %13, align 8
  %109 = getelementptr inbounds nuw %struct.ret_data_info, ptr %108, i32 0, i32 3
  store ptr null, ptr %109, align 8
  br label %138

110:                                              ; preds = %87
  %111 = load ptr, ptr %13, align 8
  %112 = getelementptr inbounds nuw %struct.ret_data_info, ptr %111, i32 0, i32 0
  %113 = load i16, ptr %112, align 8
  %114 = zext i16 %113 to i32
  %115 = load ptr, ptr %13, align 8
  %116 = getelementptr inbounds nuw %struct.ret_data_info, ptr %115, i32 0, i32 3
  %117 = load ptr, ptr %116, align 8
  %118 = call i32 @slurm_get_return_code(i32 noundef %114, ptr noundef %117)
  store i32 %118, ptr %8, align 4
  %119 = load i32, ptr %8, align 4
  %120 = call ptr @slurm_strerror(i32 noundef %119)
  %121 = call i32 (ptr, ...) @error(ptr noundef @.str.34, ptr noundef @__func__.slurm_job_step_get_pids, ptr noundef %120)
  br label %138

122:                                              ; preds = %87
  %123 = load ptr, ptr %13, align 8
  %124 = getelementptr inbounds nuw %struct.ret_data_info, ptr %123, i32 0, i32 0
  %125 = load i16, ptr %124, align 8
  %126 = zext i16 %125 to i32
  %127 = load ptr, ptr %13, align 8
  %128 = getelementptr inbounds nuw %struct.ret_data_info, ptr %127, i32 0, i32 3
  %129 = load ptr, ptr %128, align 8
  %130 = call i32 @slurm_get_return_code(i32 noundef %126, ptr noundef %129)
  store i32 %130, ptr %8, align 4
  %131 = load ptr, ptr %13, align 8
  %132 = getelementptr inbounds nuw %struct.ret_data_info, ptr %131, i32 0, i32 0
  %133 = load i16, ptr %132, align 8
  %134 = zext i16 %133 to i32
  %135 = load i32, ptr %8, align 4
  %136 = call ptr @slurm_strerror(i32 noundef %135)
  %137 = call i32 (ptr, ...) @error(ptr noundef @.str.35, ptr noundef @__func__.slurm_job_step_get_pids, i32 noundef %134, ptr noundef %136)
  br label %138

138:                                              ; preds = %122, %110, %101
  br label %83, !llvm.loop !17

139:                                              ; preds = %83
  %140 = load ptr, ptr %11, align 8
  call void @list_iterator_destroy(ptr noundef %140)
  br label %141

141:                                              ; preds = %139
  %142 = load ptr, ptr %12, align 8
  %143 = icmp ne ptr %142, null
  br i1 %143, label %144, label %146

144:                                              ; preds = %141
  %145 = load ptr, ptr %12, align 8
  call void @list_destroy(ptr noundef %145)
  br label %146

146:                                              ; preds = %144, %141
  store ptr null, ptr %12, align 8
  br label %147

147:                                              ; preds = %146
  br label %148

148:                                              ; preds = %147
  %149 = load ptr, ptr %15, align 8
  %150 = getelementptr inbounds nuw %struct.job_step_pids_response_msg_t, ptr %149, i32 0, i32 0
  %151 = load ptr, ptr %150, align 8
  %152 = icmp ne ptr %151, null
  br i1 %152, label %153, label %157

153:                                              ; preds = %148
  %154 = load ptr, ptr %15, align 8
  %155 = getelementptr inbounds nuw %struct.job_step_pids_response_msg_t, ptr %154, i32 0, i32 0
  %156 = load ptr, ptr %155, align 8
  call void @list_sort(ptr noundef %156, ptr noundef @_sort_pids_by_name)
  br label %157

157:                                              ; preds = %153, %148
  br label %158

158:                                              ; preds = %157, %79
  %159 = load ptr, ptr %14, align 8
  %160 = call i32 @slurm_step_layout_destroy(ptr noundef %159)
  %161 = load i32, ptr %8, align 4
  store i32 %161, ptr %4, align 4
  store i32 1, ptr %17, align 4
  br label %162

162:                                              ; preds = %158, %24
  call void @llvm.lifetime.end.p0(i64 1, ptr %16) #8
  call void @llvm.lifetime.end.p0(i64 8, ptr %15) #8
  call void @llvm.lifetime.end.p0(i64 8, ptr %14) #8
  call void @llvm.lifetime.end.p0(i64 8, ptr %13) #8
  call void @llvm.lifetime.end.p0(i64 8, ptr %12) #8
  call void @llvm.lifetime.end.p0(i64 8, ptr %11) #8
  call void @llvm.lifetime.end.p0(i64 24, ptr %10) #8
  call void @llvm.lifetime.end.p0(i64 424, ptr %9) #8
  call void @llvm.lifetime.end.p0(i64 4, ptr %8) #8
  %163 = load i32, ptr %4, align 4
  ret i32 %163
}