; Function Attrs: nounwind uwtable
define dso_local i32 @slurm_job_step_get_pids(ptr noundef %0, ptr noundef %1, ptr noundef captures(none) %2) local_unnamed_addr #0 {
  %4 = alloca ptr, align 8
  %5 = alloca %struct.slurm_msg, align 8
  %6 = alloca %struct.slurm_step_id_msg, align 8
  call void @llvm.lifetime.start.p0(i64 424, ptr nonnull %5) #11
  call void @llvm.lifetime.start.p0(i64 24, ptr nonnull %6) #11
  %.not = icmp eq ptr %1, null
  br i1 %.not, label %7, label %19

7:                                                ; preds = %3
  %8 = tail call ptr @slurm_job_step_layout_get(ptr noundef %0)
  %.not54 = icmp eq ptr %8, null
  br i1 %.not54, label %9, label %14

9:                                                ; preds = %7
  %10 = tail call ptr @__errno_location() #12
  %11 = load i32, ptr %10, align 4
  %12 = tail call ptr @slurm_strerror(i32 noundef %11) #11
  %13 = tail call i32 (ptr, ...) @error(ptr noundef nonnull @.str.33, ptr noundef %0, ptr noundef %12) #11
  br label %71

14:                                               ; preds = %7
  %15 = getelementptr inbounds nuw i8, ptr %8, i64 48
  %16 = load ptr, ptr %15, align 8
  %17 = getelementptr inbounds nuw i8, ptr %8, i64 32
  %18 = load ptr, ptr %17, align 8
  tail call void @fwd_set_alias_addrs(ptr noundef %18) #11
  br label %19

19:                                               ; preds = %14, %3
  %.046 = phi ptr [ %1, %3 ], [ %16, %14 ]
  %.043 = phi ptr [ null, %3 ], [ %8, %14 ]
  %20 = load ptr, ptr %2, align 8
  %.not55 = icmp eq ptr %20, null
  br i1 %.not55, label %21, label %23

21:                                               ; preds = %19
  %22 = tail call ptr @slurm_xcalloc(i64 noundef 1, i64 noundef 32, i1 noundef zeroext true, i1 noundef zeroext false, ptr noundef nonnull @.str.27, i32 noundef 851, ptr noundef nonnull @__func__.slurm_job_step_get_pids) #11
  store ptr %22, ptr %2, align 8
  br label %23

23:                                               ; preds = %19, %21
  %.042 = phi ptr [ %22, %21 ], [ %20, %19 ]
  %24 = tail call i32 @get_log_level() #11
  %25 = icmp sgt i32 %24, 4
  br i1 %25, label %26, label %27

26:                                               ; preds = %23
  tail call void (i32, ptr, ...) @log_var(i32 noundef 5, ptr noundef nonnull @.str.28, ptr noundef nonnull @__func__.slurm_job_step_get_pids, ptr noundef %0, ptr noundef %.046) #11
  br label %27

27:                                               ; preds = %26, %23
  call void @slurm_msg_t_init(ptr noundef nonnull %5) #11
  call void @slurm_msg_set_r_uid(ptr noundef nonnull %5, i32 noundef -1) #11
  call void @llvm.memcpy.p0.p0.i64(ptr noundef nonnull align 8 dereferenceable(24) %6, ptr noundef nonnull align 8 dereferenceable(24) %0, i64 24, i1 false)
  %28 = getelementptr inbounds nuw i8, ptr %.042, i64 8
  call void @llvm.memcpy.p0.p0.i64(ptr noundef nonnull align 8 dereferenceable(24) %28, ptr noundef nonnull align 8 dereferenceable(24) %0, i64 24, i1 false)
  %29 = getelementptr inbounds nuw i8, ptr %5, i64 212
  store i16 5027, ptr %29, align 4
  %30 = getelementptr inbounds nuw i8, ptr %5, i64 200
  store ptr %6, ptr %30, align 8
  %31 = call ptr @slurm_send_recv_msgs(ptr noundef %.046, ptr noundef nonnull %5, i32 noundef 0) #11
  %.not56 = icmp eq ptr %31, null
  br i1 %.not56, label %32, label %37

32:                                               ; preds = %27
  %33 = call i32 (ptr, ...) @error(ptr noundef nonnull @.str.29, ptr noundef nonnull @__func__.slurm_job_step_get_pids) #11
  br i1 %.not55, label %34, label %69

34:                                               ; preds = %32
  call void @llvm.lifetime.start.p0(i64 8, ptr nonnull %4) #11
  store ptr %.042, ptr %4, align 8
  %35 = load ptr, ptr %.042, align 8
  %.not2.i = icmp eq ptr %35, null
  br i1 %.not2.i, label %slurm_job_step_pids_response_msg_free.exit, label %36

36:                                               ; preds = %34
  call void @list_destroy(ptr noundef nonnull %35) #11
  br label %slurm_job_step_pids_response_msg_free.exit

slurm_job_step_pids_response_msg_free.exit:       ; preds = %34, %36
  store ptr null, ptr %.042, align 8
  call void @slurm_xfree(ptr noundef nonnull %4) #11
  call void @llvm.lifetime.end.p0(i64 8, ptr nonnull %4) #11
  store ptr null, ptr %2, align 8
  br label %69

37:                                               ; preds = %27
  %38 = call ptr @list_iterator_create(ptr noundef nonnull %31) #11
  %39 = call ptr @list_next(ptr noundef %38) #11
  %.not5760 = icmp eq ptr %39, null
  br i1 %.not5760, label %._crit_edge, label %.lr.ph

.lr.ph:                                           ; preds = %37, %65
  %40 = phi ptr [ %66, %65 ], [ %39, %37 ]
  %.161 = phi i32 [ %.2, %65 ], [ 0, %37 ]
  %41 = load i16, ptr %40, align 8
  switch i16 %41, label %56 [
    i16 5028, label %42
    i16 8001, label %50
  ]

42:                                               ; preds = %.lr.ph
  %43 = load ptr, ptr %.042, align 8
  %.not59 = icmp eq ptr %43, null
  br i1 %.not59, label %44, label %46

44:                                               ; preds = %42
  %45 = call ptr @list_create(ptr noundef nonnull @slurm_free_job_step_pids) #11
  store ptr %45, ptr %.042, align 8
  br label %46

46:                                               ; preds = %44, %42
  %47 = phi ptr [ %45, %44 ], [ %43, %42 ]
  %48 = getelementptr inbounds nuw i8, ptr %40, i64 16
  %49 = load ptr, ptr %48, align 8
  call void @list_push(ptr noundef %47, ptr noundef %49) #11
  store ptr null, ptr %48, align 8
  br label %65

50:                                               ; preds = %.lr.ph
  %51 = getelementptr inbounds nuw i8, ptr %40, i64 16
  %52 = load ptr, ptr %51, align 8
  %53 = call i32 @slurm_get_return_code(i32 noundef 8001, ptr noundef %52) #11
  %54 = call ptr @slurm_strerror(i32 noundef %53) #11
  %55 = call i32 (ptr, ...) @error(ptr noundef nonnull @.str.34, ptr noundef nonnull @__func__.slurm_job_step_get_pids, ptr noundef %54) #11
  br label %65

56:                                               ; preds = %.lr.ph
  %57 = zext i16 %41 to i32
  %58 = getelementptr inbounds nuw i8, ptr %40, i64 16
  %59 = load ptr, ptr %58, align 8
  %60 = call i32 @slurm_get_return_code(i32 noundef %57, ptr noundef %59) #11
  %61 = load i16, ptr %40, align 8
  %62 = zext i16 %61 to i32
  %63 = call ptr @slurm_strerror(i32 noundef %60) #11
  %64 = call i32 (ptr, ...) @error(ptr noundef nonnull @.str.35, ptr noundef nonnull @__func__.slurm_job_step_get_pids, i32 noundef %62, ptr noundef %63) #11
  br label %65

65:                                               ; preds = %56, %50, %46
  %.2 = phi i32 [ %60, %56 ], [ %53, %50 ], [ %.161, %46 ]
  %66 = call ptr @list_next(ptr noundef %38) #11
  %.not57 = icmp eq ptr %66, null
  br i1 %.not57, label %._crit_edge, label %.lr.ph, !llvm.loop !15

._crit_edge:                                      ; preds = %65, %37
  %.1.lcssa = phi i32 [ 0, %37 ], [ %.2, %65 ]
  call void @list_iterator_destroy(ptr noundef %38) #11
  call void @list_destroy(ptr noundef nonnull %31) #11
  %67 = load ptr, ptr %.042, align 8
  %.not58 = icmp eq ptr %67, null
  br i1 %.not58, label %69, label %68

68:                                               ; preds = %._crit_edge
  call void @list_sort(ptr noundef nonnull %67, ptr noundef nonnull @_sort_pids_by_name) #11
  br label %69

69:                                               ; preds = %._crit_edge, %68, %32, %slurm_job_step_pids_response_msg_free.exit
  %.045 = phi i32 [ %.1.lcssa, %68 ], [ %.1.lcssa, %._crit_edge ], [ -1, %slurm_job_step_pids_response_msg_free.exit ], [ -1, %32 ]
  %70 = call i32 @slurm_step_layout_destroy(ptr noundef %.043) #11
  br label %71

71:                                               ; preds = %69, %9
  %.044 = phi i32 [ %.045, %69 ], [ %11, %9 ]
  call void @llvm.lifetime.end.p0(i64 24, ptr nonnull %6) #11
  call void @llvm.lifetime.end.p0(i64 424, ptr nonnull %5) #11
  ret i32 %.044
}